; Function Attrs: nounwind uwtable
define ptr @l_Lean_Compiler_LCNF_UnreachableBranches_findArgValue___boxed(ptr noundef %0, ptr noundef %1, ptr noundef %2, ptr noundef %3, ptr noundef %4, ptr noundef %5, ptr noundef %6, ptr noundef %7) local_unnamed_addr #1 {
  %9 = ptrtoint ptr %0 to i64
  %10 = and i64 %9, 1
  %.not.i.i = icmp eq i64 %10, 0
  br i1 %.not.i.i, label %14, label %11

11:                                               ; preds = %8
  %12 = lshr i64 %9, 1
  %13 = trunc i64 %12 to i32
  br label %lean_obj_tag.exit.i

14:                                               ; preds = %8
  %15 = getelementptr i8, ptr %0, i64 4
  %.val.i.i = load i32, ptr %15, align 4
  %16 = lshr i32 %.val.i.i, 24
  br label %lean_obj_tag.exit.i

lean_obj_tag.exit.i:                              ; preds = %14, %11
  %.0.i.i = phi i32 [ %13, %11 ], [ %16, %14 ]
  %17 = icmp eq i32 %.0.i.i, 1
  br i1 %17, label %18, label %22

18:                                               ; preds = %lean_obj_tag.exit.i
  %19 = getelementptr inbounds nuw i8, ptr %0, i64 8
  %20 = load ptr, ptr %19, align 8, !tbaa !11
  %21 = tail call ptr @l_Lean_Compiler_LCNF_UnreachableBranches_findVarValue(ptr noundef %20, ptr noundef readonly %1, ptr noundef %2, ptr readnone poison, ptr readnone poison, ptr readnone poison, ptr readnone poison, ptr noundef %7)
  br label %l_Lean_Compiler_LCNF_UnreachableBranches_findArgValue.exit

22:                                               ; preds = %lean_obj_tag.exit.i
  tail call void @lean_inc_heartbeat() #8
  %23 = tail call noalias ptr @mi_malloc_small(i64 noundef 24) #8
  %24 = icmp eq ptr %23, null
  br i1 %24, label %25, label %lean_alloc_ctor.exit.i

25:                                               ; preds = %22
  tail call void @lean_internal_panic_out_of_memory() #7
  unreachable

lean_alloc_ctor.exit.i:                           ; preds = %22
  %26 = getelementptr inbounds nuw i8, ptr %23, i64 4
  store i32 1, ptr %23, align 4, !tbaa !4
  store i32 131096, ptr %26, align 4
  %27 = getelementptr inbounds nuw i8, ptr %23, i64 8
  store ptr inttoptr (i64 3 to ptr), ptr %27, align 8, !tbaa !11
  %28 = getelementptr inbounds nuw i8, ptr %23, i64 16
  store ptr %7, ptr %28, align 8, !tbaa !11
  br label %l_Lean_Compiler_LCNF_UnreachableBranches_findArgValue.exit

l_Lean_Compiler_LCNF_UnreachableBranches_findArgValue.exit: ; preds = %18, %lean_alloc_ctor.exit.i
  %.0.i = phi ptr [ %21, %18 ], [ %23, %lean_alloc_ctor.exit.i ]
  %29 = ptrtoint ptr %6 to i64
  %30 = and i64 %29, 1
  %.not = icmp eq i64 %30, 0
  br i1 %.not, label %31, label %lean_dec.exit21

31:                                               ; preds = %l_Lean_Compiler_LCNF_UnreachableBranches_findArgValue.exit
  %32 = load i32, ptr %6, align 4, !tbaa !4
  %33 = icmp sgt i32 %32, 1
  br i1 %33, label %34, label %36, !prof !13

34:                                               ; preds = %31
  %35 = add nsw i32 %32, -1
  store i32 %35, ptr %6, align 4, !tbaa !4
  br label %lean_dec.exit21

36:                                               ; preds = %31
  %.not.i = icmp eq i32 %32, 0
  br i1 %.not.i, label %lean_dec.exit21, label %37

37:                                               ; preds = %36
  tail call void @lean_dec_ref_cold(ptr noundef nonnull %6) #8
  br label %lean_dec.exit21

lean_dec.exit21:                                  ; preds = %37, %36, %34, %l_Lean_Compiler_LCNF_UnreachableBranches_findArgValue.exit
  %38 = ptrtoint ptr %5 to i64
  %39 = and i64 %38, 1
  %.not34 = icmp eq i64 %39, 0
  br i1 %.not34, label %40, label %lean_dec.exit20

40:                                               ; preds = %lean_dec.exit21
  %41 = load i32, ptr %5, align 4, !tbaa !4
  %42 = icmp sgt i32 %41, 1
  br i1 %42, label %43, label %45, !prof !13

43:                                               ; preds = %40
  %44 = add nsw i32 %41, -1
  store i32 %44, ptr %5, align 4, !tbaa !4
  br label %lean_dec.exit20

45:                                               ; preds = %40
  %.not.i22 = icmp eq i32 %41, 0
  br i1 %.not.i22, label %lean_dec.exit20, label %46

46:                                               ; preds = %45
  tail call void @lean_dec_ref_cold(ptr noundef nonnull %5) #8
  br label %lean_dec.exit20

lean_dec.exit20:                                  ; preds = %46, %45, %43, %lean_dec.exit21
  %47 = ptrtoint ptr %4 to i64
  %48 = and i64 %47, 1
  %.not35 = icmp eq i64 %48, 0
  br i1 %.not35, label %49, label %lean_dec.exit19

49:                                               ; preds = %lean_dec.exit20
  %50 = load i32, ptr %4, align 4, !tbaa !4
  %51 = icmp sgt i32 %50, 1
  br i1 %51, label %52, label %54, !prof !13

52:                                               ; preds = %49
  %53 = add nsw i32 %50, -1
  store i32 %53, ptr %4, align 4, !tbaa !4
  br label %lean_dec.exit19

54:                                               ; preds = %49
  %.not.i24 = icmp eq i32 %50, 0
  br i1 %.not.i24, label %lean_dec.exit19, label %55

55:                                               ; preds = %54
  tail call void @lean_dec_ref_cold(ptr noundef nonnull %4) #8
  br label %lean_dec.exit19

lean_dec.exit19:                                  ; preds = %55, %54, %52, %lean_dec.exit20
  %56 = ptrtoint ptr %3 to i64
  %57 = and i64 %56, 1
  %.not36 = icmp eq i64 %57, 0
  br i1 %.not36, label %58, label %lean_dec.exit18

58:                                               ; preds = %lean_dec.exit19
  %59 = load i32, ptr %3, align 4, !tbaa !4
  %60 = icmp sgt i32 %59, 1
  br i1 %60, label %61, label %63, !prof !13

61:                                               ; preds = %58
  %62 = add nsw i32 %59, -1
  store i32 %62, ptr %3, align 4, !tbaa !4
  br label %lean_dec.exit18

63:                                               ; preds = %58
  %.not.i26 = icmp eq i32 %59, 0
  br i1 %.not.i26, label %lean_dec.exit18, label %64

64:                                               ; preds = %63
  tail call void @lean_dec_ref_cold(ptr noundef nonnull %3) #8
  br label %lean_dec.exit18

lean_dec.exit18:                                  ; preds = %64, %63, %61, %lean_dec.exit19
  %65 = ptrtoint ptr %2 to i64
  %66 = and i64 %65, 1
  %.not37 = icmp eq i64 %66, 0
  br i1 %.not37, label %67, label %lean_dec.exit17

67:                                               ; preds = %lean_dec.exit18
  %68 = load i32, ptr %2, align 4, !tbaa !4
  %69 = icmp sgt i32 %68, 1
  br i1 %69, label %70, label %72, !prof !13

70:                                               ; preds = %67
  %71 = add nsw i32 %68, -1
  store i32 %71, ptr %2, align 4, !tbaa !4
  br label %lean_dec.exit17

72:                                               ; preds = %67
  %.not.i28 = icmp eq i32 %68, 0
  br i1 %.not.i28, label %lean_dec.exit17, label %73

73:                                               ; preds = %72
  tail call void @lean_dec_ref_cold(ptr noundef nonnull %2) #8
  br label %lean_dec.exit17

lean_dec.exit17:                                  ; preds = %73, %72, %70, %lean_dec.exit18
  %74 = ptrtoint ptr %1 to i64
  %75 = and i64 %74, 1
  %.not38 = icmp eq i64 %75, 0
  br i1 %.not38, label %76, label %lean_dec.exit16

76:                                               ; preds = %lean_dec.exit17
  %77 = load i32, ptr %1, align 4, !tbaa !4
  %78 = icmp sgt i32 %77, 1
  br i1 %78, label %79, label %81, !prof !13

79:                                               ; preds = %76
  %80 = add nsw i32 %77, -1
  store i32 %80, ptr %1, align 4, !tbaa !4
  br label %lean_dec.exit16

81:                                               ; preds = %76
  %.not.i30 = icmp eq i32 %77, 0
  br i1 %.not.i30, label %lean_dec.exit16, label %82

82:                                               ; preds = %81
  tail call void @lean_dec_ref_cold(ptr noundef nonnull %1) #8
  br label %lean_dec.exit16

lean_dec.exit16:                                  ; preds = %82, %81, %79, %lean_dec.exit17
  br i1 %.not.i.i, label %83, label %lean_dec.exit

83:                                               ; preds = %lean_dec.exit16
  %84 = load i32, ptr %0, align 4, !tbaa !4
  %85 = icmp sgt i32 %84, 1
  br i1 %85, label %86, label %88, !prof !13

86:                                               ; preds = %83
  %87 = add nsw i32 %84, -1
  store i32 %87, ptr %0, align 4, !tbaa !4
  br label %lean_dec.exit

88:                                               ; preds = %83
  %.not.i32 = icmp eq i32 %84, 0
  br i1 %.not.i32, label %lean_dec.exit, label %89

89:                                               ; preds = %88
  tail call void @lean_dec_ref_cold(ptr noundef nonnull %0) #8
  br label %lean_dec.exit

lean_dec.exit:                                    ; preds = %89, %88, %86, %lean_dec.exit16
  ret ptr %.0.i
}